target datalayout = "e-m:e-p270:32:32-p271:32:32-p272:64:64-i64:64-i128:128-f80:128-n8:16:32:64-S128"
target triple = "x86_64-pc-linux-gnu"

%"class.ODDLParser::Value::Iterator" = type { ptr, ptr }
%"class.ODDLParser::Value" = type { i32, i64, ptr, ptr }

@_ZN10ODDLParserL3endE = internal global %"class.ODDLParser::Value::Iterator" zeroinitializer, align 8
@_ZN10ODDLParser5Value8IteratorC1EPS0_ = hidden unnamed_addr alias void (ptr, ptr), ptr @_ZN10ODDLParser5Value8IteratorC2EPS0_
@_ZN10ODDLParser5Value8IteratorC1ERKS1_ = hidden unnamed_addr alias void (ptr, ptr), ptr @_ZN10ODDLParser5Value8IteratorC2ERKS1_
@_ZN10ODDLParser5Value8IteratorD1Ev = hidden unnamed_addr alias void (ptr), ptr @_ZN10ODDLParser5Value8IteratorD2Ev

; Function Attrs: mustprogress nounwind uwtable
define hidden noundef ptr @_ZNK10ODDLParser5Value7getNextEv(ptr noundef nonnull align 8 dereferenceable(32) %0) #2 align 2 {
  %2 = alloca ptr, align 8
  store ptr %0, ptr %2, align 8
  %3 = load ptr, ptr %2, align 8
  %4 = getelementptr inbounds nuw %"class.ODDLParser::Value", ptr %3, i32 0, i32 3
  %5 = load ptr, ptr %4, align 8
  ret ptr %5
}

; Function Attrs: mustprogress uwtable
define hidden void @_ZN10ODDLParser5Value8IteratorppEi(ptr dead_on_unwind noalias writable sret(%"class.ODDLParser::Value::Iterator") align 8 %0, ptr noundef nonnull align 8 dereferenceable(16) %1, i32 noundef %2) #3 align 2 {
  %4 = alloca ptr, align 8
  %5 = alloca ptr, align 8
  %6 = alloca i32, align 4
  %7 = alloca i1, align 1
  store ptr %0, ptr %4, align 8
  store ptr %1, ptr %5, align 8
  store i32 %2, ptr %6, align 4
  %8 = load ptr, ptr %5, align 8
  %9 = getelementptr inbounds nuw %"class.ODDLParser::Value::Iterator", ptr %8, i32 0, i32 1
  %10 = load ptr, ptr %9, align 8
  %11 = icmp eq ptr null, %10
  br i1 %11, label %12, label %13

12:                                               ; preds = %3
  call void @_ZN10ODDLParser5Value8IteratorC1ERKS1_(ptr noundef nonnull align 8 dereferenceable(16) %0, ptr noundef nonnull align 8 dereferenceable(16) @_ZN10ODDLParserL3endE)
  br label %23

13:                                               ; preds = %3
  %14 = getelementptr inbounds nuw %"class.ODDLParser::Value::Iterator", ptr %8, i32 0, i32 1
  %15 = load ptr, ptr %14, align 8
  %16 = call noundef ptr @_ZNK10ODDLParser5Value7getNextEv(ptr noundef nonnull align 8 dereferenceable(32) %15)
  %17 = getelementptr inbounds nuw %"class.ODDLParser::Value::Iterator", ptr %8, i32 0, i32 1
  store ptr %16, ptr %17, align 8
  store i1 false, ptr %7, align 1
  %18 = getelementptr inbounds nuw %"class.ODDLParser::Value::Iterator", ptr %8, i32 0, i32 1
  %19 = load ptr, ptr %18, align 8
  call void @_ZN10ODDLParser5Value8IteratorC1EPS0_(ptr noundef nonnull align 8 dereferenceable(16) %0, ptr noundef %19)
  store i1 true, ptr %7, align 1
  %20 = load i1, ptr %7, align 1
  br i1 %20, label %22, label %21

21:                                               ; preds = %13
  call void @_ZN10ODDLParser5Value8IteratorD1Ev(ptr noundef nonnull align 8 dereferenceable(16) %0) #1
  br label %22

22:                                               ; preds = %21, %13
  br label %23

23:                                               ; preds = %22, %12
  ret void
}