; Function Attrs: mustprogress nofree norecurse nosync nounwind willreturn memory(read, argmem: readwrite, inaccessiblemem: none) uwtable
define hidden void @_ZN10ODDLParser5Value8IteratorppEi(ptr dead_on_unwind noalias writable writeonly sret(%"class.ODDLParser::Value::Iterator") align 8 captures(none) initializes((0, 16)) %0, ptr noundef nonnull align 8 captures(none) dereferenceable(16) %1, i32 noundef %2) local_unnamed_addr #5 align 2 {
  %4 = getelementptr inbounds nuw i8, ptr %1, i64 8
  %5 = load ptr, ptr %4, align 8
  %6 = icmp eq ptr %5, null
  br i1 %6, label %7, label %10

7:                                                ; preds = %3
  %8 = load ptr, ptr @_ZN10ODDLParserL3endE, align 8
  %9 = load ptr, ptr getelementptr inbounds nuw (i8, ptr @_ZN10ODDLParserL3endE, i64 8), align 8
  br label %13

10:                                               ; preds = %3
  %11 = getelementptr inbounds nuw i8, ptr %5, i64 24
  %12 = load ptr, ptr %11, align 8
  store ptr %12, ptr %4, align 8
  br label %13

13:                                               ; preds = %10, %7
  %.sink2 = phi ptr [ %8, %7 ], [ %12, %10 ]
  %.sink = phi ptr [ %9, %7 ], [ %12, %10 ]
  store ptr %.sink2, ptr %0, align 8
  %14 = getelementptr inbounds nuw i8, ptr %0, i64 8
  store ptr %.sink, ptr %14, align 8
  ret void
}